(dp0
Vfullscreen_mode
p1
I0
sVorientation
p2
Vhorizontal
p3
sVfocus
p4
(lp5
I94205769708544
aI94205769747280
aI94205768880368
asVsticky
p6
I00
sVurgent
p7
I00
sVlast_split_layout
p8
Vsplith
p9
sVfloating
p10
Vauto_off
p11
sVborder
p12
Vpixel
p13
sVid
p14
I94205768879840
sVcurrent_border_width
p15
I-1
sVwindow_type
p16
NsVlayout
p17
Vsplith
p18
sVpercent
p19
NsVworkspace_layout
p20
Vdefault
p21
sVwindow
p22
NsVmarks
p23
(lp24
sVnodes
p25
(lp26
(dp27
Vfullscreen_mode
p28
I0
sVorientation
p29
Vnone
p30
sVfocus
p31
(lp32
I94205769702240
asVsticky
p33
I00
sVurgent
p34
I00
sVlast_split_layout
p35
Vsplith
p36
sVfloating
p37
Vauto_off
p38
sVborder
p39
Vpixel
p40
sVid
p41
I94205768880368
sVcurrent_border_width
p42
I-1
sVwindow_type
p43
NsVlayout
p44
Voutput
p45
sVpercent
p46
F0.3333333333333333
sVworkspace_layout
p47
Vdefault
p48
sVwindow
p49
NsVmarks
p50
(lp51
sVnodes
p52
(lp53
(dp54
Vfullscreen_mode
p55
I0
sVorientation
p56
Vhorizontal
p57
sVfocus
p58
(lp59
I94205769705232
asVsticky
p60
I00
sVurgent
p61
I00
sVlast_split_layout
p62
Vsplith
p63
sVfloating
p64
Vauto_off
p65
sVborder
p66
Vpixel
p67
sVid
p68
I94205769702240
sVcurrent_border_width
p69
I-1
sVwindow_type
p70
NsVlayout
p71
Vsplith
p72
sVpercent
p73
NsVworkspace_layout
p74
Vdefault
p75
sVwindow
p76
NsVmarks
p77
(lp78
sVnodes
p79
(lp80
(dp81
Vfullscreen_mode
p82
I1
sVorientation
p83
Vnone
p84
sVfocus
p85
(lp86
I94205769761184
aI94205769764704
aI94205769757792
aI94205769788320
asVsticky
p87
I00
sVurgent
p88
I00
sVnum
p89
I-1
sVlast_split_layout
p90
Vsplith
p91
sVfloating
p92
Vauto_off
p93
sVborder
p94
Vpixel
p95
sVid
p96
I94205769705232
sVcurrent_border_width
p97
I-1
sVwindow_type
p98
NsVlayout
p99
Vsplith
p100
sVpercent
p101
NsVworkspace_layout
p102
Vdefault
p103
sVwindow
p104
NsVmarks
p105
(lp106
sVnodes
p107
(lp108
sVtype
p109
Vworkspace
p110
sVdeco_rect
p111
(dp112
Vy
p113
I0
sVx
p114
I0
sVheight
p115
I0
sVwidth
p116
I0
ssVswallows
p117
(lp118
sVfocused
p119
I00
sVscratchpad_state
p120
Vnone
p121
sVrect
p122
(dp123
g113
I0
sg114
I0
sVheight
p124
I0
sVwidth
p125
I0
ssVwindow_rect
p126
(dp127
g113
I0
sg114
I0
sVheight
p128
I0
sVwidth
p129
I0
ssVname
p130
V__i3_scratch
p131
sVgeometry
p132
(dp133
g113
I0
sg114
I0
sVheight
p134
I0
sVwidth
p135
I0
ssVgaps
p136
(dp137
Vright
p138
I0
sVouter
p139
I0
sVbottom
p140
I0
sVtop
p141
I0
sVinner
p142
I0
sVleft
p143
I0
ssVfloating_nodes
p144
(lp145
(dp146
Vfullscreen_mode
p147
I0
sVorientation
p148
Vhorizontal
p149
sVfocus
p150
(lp151
I94205769862608
asVsticky
p152
I00
sVurgent
p153
I00
sVlast_split_layout
p154
Vsplith
p155
sVfloating
p156
Vauto_off
p157
sVborder
p158
Vpixel
p159
sVid
p160
I94205769761184
sVcurrent_border_width
p161
I-1
sVwindow_type
p162
NsVlayout
p163
Vsplith
p164
sVpercent
p165
NsVworkspace_layout
p166
Vdefault
p167
sVwindow
p168
NsVmarks
p169
(lp170
sVnodes
p171
(lp172
(dp173
Vwindow_properties
p174
(dp175
Vinstance
p176
Vdropdown_urxvt
p177
sVtransient_for
p178
NsVclass
p179
VURxvt
p180
sVtitle
p181
Vdropdown_urxvt
p182
ssVfullscreen_mode
p183
I0
sVorientation
p184
Vnone
p185
sVfocus
p186
(lp187
sVsticky
p188
I01
sVurgent
p189
I00
sVlast_split_layout
p190
Vsplith
p191
sVfloating
p192
Vuser_on
p193
sVborder
p194
Vpixel
p195
sVid
p196
I94205769862608
sVcurrent_border_width
p197
I0
sVwindow_type
p198
Vunknown
p199
sVlayout
p200
Vsplith
p201
sVpercent
p202
F1.0
sVworkspace_layout
p203
Vdefault
p204
sVwindow
p205
I58720266
sVmarks
p206
(lp207
sVnodes
p208
(lp209
sVtype
p210
Vcon
p211
sVdeco_rect
p212
(dp213
g113
I0
sg114
I0
sVheight
p214
I0
sVwidth
p215
I0
ssVswallows
p216
(lp217
sVfocused
p218
I00
sVscratchpad_state
p219
Vnone
p220
sVrect
p221
(dp222
g113
I29
sg114
I1372
sVheight
p223
I732
sVwidth
p224
I1342
ssVwindow_rect
p225
(dp226
g113
I0
sg114
I0
sVheight
p227
I724
sVwidth
p228
I1334
ssVname
p229
Vdropdown_urxvt
p230
sVgeometry
p231
(dp232
g113
I0
sg114
I0
sVheight
p233
I724
sVwidth
p234
I1334
ssVfloating_nodes
p235
(lp236
sVoutput
p237
V__i3
p238
sasVtype
p239
Vfloating_con
p240
sVdeco_rect
p241
(dp242
g113
I0
sg114
I0
sVheight
p243
I0
sVwidth
p244
I0
ssVswallows
p245
(lp246
sVfocused
p247
I00
sVscratchpad_state
p248
Vchanged
p249
sVrect
p250
(dp251
g113
I29
sg114
I463769
sVheight
p252
I732
sVwidth
p253
I1342
ssVwindow_rect
p254
(dp255
g113
I0
sg114
I0
sVheight
p256
I0
sVwidth
p257
I0
ssVname
p258
NsVgeometry
p259
(dp260
g113
I0
sg114
I0
sVheight
p261
I0
sVwidth
p262
I0
ssVfloating_nodes
p263
(lp264
sVoutput
p265
V__i3
p266
sa(dp267
Vfullscreen_mode
p268
I0
sVorientation
p269
Vhorizontal
p270
sVfocus
p271
(lp272
I94205769833552
asVsticky
p273
I00
sVurgent
p274
I00
sVlast_split_layout
p275
Vsplith
p276
sVfloating
p277
Vauto_off
p278
sVborder
p279
Vpixel
p280
sVid
p281
I94205769764704
sVcurrent_border_width
p282
I-1
sVwindow_type
p283
NsVlayout
p284
Vsplith
p285
sVpercent
p286
NsVworkspace_layout
p287
Vdefault
p288
sVwindow
p289
NsVmarks
p290
(lp291
sVnodes
p292
(lp293
(dp294
Vwindow_properties
p295
(dp296
Vinstance
p297
Vspotify
p298
sVtransient_for
p299
NsVclass
p300
VSpotify
p301
sVtitle
p302
VSpotify Premium
p303
ssVfullscreen_mode
p304
I0
sVorientation
p305
Vnone
p306
sVfocus
p307
(lp308
sVsticky
p309
I01
sVurgent
p310
I00
sVlast_split_layout
p311
Vsplith
p312
sVfloating
p313
Vuser_on
p314
sVborder
p315
Vpixel
p316
sVid
p317
I94205769833552
sVcurrent_border_width
p318
I0
sVwindow_type
p319
Vunknown
p320
sVlayout
p321
Vsplith
p322
sVpercent
p323
F1.0
sVworkspace_layout
p324
Vdefault
p325
sVwindow
p326
I46137345
sVmarks
p327
(lp328
sVnodes
p329
(lp330
sVtype
p331
Vcon
p332
sVdeco_rect
p333
(dp334
g113
I0
sg114
I0
sVheight
p335
I0
sVwidth
p336
I0
ssVswallows
p337
(lp338
sVfocused
p339
I00
sVscratchpad_state
p340
Vnone
p341
sVrect
p342
(dp343
g113
I84
sg114
I1643
sVheight
p344
I600
sVwidth
p345
I800
ssVwindow_rect
p346
(dp347
g113
I0
sg114
I0
sVheight
p348
I600
sVwidth
p349
I800
ssVname
p350
VSpotify Premium
p351
sVgeometry
p352
(dp353
g113
I0
sg114
I0
sVheight
p354
I600
sVwidth
p355
I800
ssVfloating_nodes
p356
(lp357
sVoutput
p358
V__i3
p359
sasVtype
p360
Vfloating_con
p361
sVdeco_rect
p362
(dp363
g113
I0
sg114
I0
sVheight
p364
I0
sVwidth
p365
I0
ssVswallows
p366
(lp367
sVfocused
p368
I00
sVscratchpad_state
p369
Vchanged
p370
sVrect
p371
(dp372
g113
I84
sg114
I464040
sVheight
p373
I600
sVwidth
p374
I800
ssVwindow_rect
p375
(dp376
g113
I0
sg114
I0
sVheight
p377
I0
sVwidth
p378
I0
ssVname
p379
NsVgeometry
p380
(dp381
g113
I0
sg114
I0
sVheight
p382
I0
sVwidth
p383
I0
ssVfloating_nodes
p384
(lp385
sVoutput
p386
V__i3
p387
sa(dp388
Vfullscreen_mode
p389
I0
sVorientation
p390
Vhorizontal
p391
sVfocus
p392
(lp393
I94205769802592
asVsticky
p394
I00
sVurgent
p395
I00
sVlast_split_layout
p396
Vsplith
p397
sVfloating
p398
Vauto_off
p399
sVborder
p400
Vpixel
p401
sVid
p402
I94205769757792
sVcurrent_border_width
p403
I-1
sVwindow_type
p404
NsVlayout
p405
Vsplith
p406
sVpercent
p407
NsVworkspace_layout
p408
Vdefault
p409
sVwindow
p410
NsVmarks
p411
(lp412
sVnodes
p413
(lp414
(dp415
Vwindow_properties
p416
(dp417
Vinstance
p418
VNavigator
p419
sVtransient_for
p420
NsVwindow_role
p421
Vbrowser
p422
sVclass
p423
Vfirefox
p424
sVtitle
p425
VWhatsApp \u2014 Mozilla Firefox
p426
ssVfullscreen_mode
p427
I0
sVorientation
p428
Vnone
p429
sVfocus
p430
(lp431
sVsticky
p432
I01
sVurgent
p433
I00
sVlast_split_layout
p434
Vsplith
p435
sVfloating
p436
Vuser_on
p437
sVborder
p438
Vpixel
p439
sVid
p440
I94205769802592
sVcurrent_border_width
p441
I0
sVwindow_type
p442
Vnormal
p443
sVlayout
p444
Vsplith
p445
sVpercent
p446
F1.0
sVworkspace_layout
p447
Vdefault
p448
sVwindow
p449
I69206019
sVmarks
p450
(lp451
sVnodes
p452
(lp453
sVtype
p454
Vcon
p455
sVdeco_rect
p456
(dp457
g113
I0
sg114
I0
sVheight
p458
I0
sVwidth
p459
I0
ssVswallows
p460
(lp461
sVfocused
p462
I00
sVscratchpad_state
p463
Vnone
p464
sVrect
p465
(dp466
g113
I25
sg114
I0
sVheight
p467
I740
sVwidth
p468
I1360
ssVwindow_rect
p469
(dp470
g113
I0
sg114
I0
sVheight
p471
I740
sVwidth
p472
I1360
ssVname
p473
VWhatsApp \u2014 Mozilla Firefox
p474
sVgeometry
p475
(dp476
g113
I0
sg114
I0
sVheight
p477
I740
sVwidth
p478
I1360
ssVfloating_nodes
p479
(lp480
sVoutput
p481
V__i3
p482
sasVtype
p483
Vfloating_con
p484
sVdeco_rect
p485
(dp486
g113
I0
sg114
I0
sVheight
p487
I0
sVwidth
p488
I0
ssVswallows
p489
(lp490
sVfocused
p491
I00
sVscratchpad_state
p492
Vchanged
p493
sVrect
p494
(dp495
g113
I25
sg114
I463760
sVheight
p496
I740
sVwidth
p497
I1360
ssVwindow_rect
p498
(dp499
g113
I0
sg114
I0
sVheight
p500
I0
sVwidth
p501
I0
ssVname
p502
NsVgeometry
p503
(dp504
g113
I0
sg114
I0
sVheight
p505
I0
sVwidth
p506
I0
ssVfloating_nodes
p507
(lp508
sVoutput
p509
V__i3
p510
sa(dp511
Vfullscreen_mode
p512
I0
sVorientation
p513
Vhorizontal
p514
sVfocus
p515
(lp516
I94205769757312
asVsticky
p517
I00
sVurgent
p518
I00
sVlast_split_layout
p519
Vsplith
p520
sVfloating
p521
Vauto_off
p522
sVborder
p523
Vpixel
p524
sVid
p525
I94205769788320
sVcurrent_border_width
p526
I-1
sVwindow_type
p527
NsVlayout
p528
Vsplith
p529
sVpercent
p530
NsVworkspace_layout
p531
Vdefault
p532
sVwindow
p533
NsVmarks
p534
(lp535
sVnodes
p536
(lp537
(dp538
Vwindow_properties
p539
(dp540
Vinstance
p541
Vdiscord
p542
sVtransient_for
p543
NsVwindow_role
p544
Vbrowser-window
p545
sVclass
p546
Vdiscord
p547
sVtitle
p548
VDiscord
p549
ssVfullscreen_mode
p550
I0
sVorientation
p551
Vnone
p552
sVfocus
p553
(lp554
sVsticky
p555
I01
sVurgent
p556
I00
sVlast_split_layout
p557
Vsplith
p558
sVfloating
p559
Vuser_on
p560
sVborder
p561
Vpixel
p562
sVid
p563
I94205769757312
sVcurrent_border_width
p564
I0
sVwindow_type
p565
Vnormal
p566
sVlayout
p567
Vsplith
p568
sVpercent
p569
F1.0
sVworkspace_layout
p570
Vdefault
p571
sVwindow
p572
I77594633
sVmarks
p573
(lp574
sVnodes
p575
(lp576
sVtype
p577
Vcon
p578
sVdeco_rect
p579
(dp580
g113
I0
sg114
I0
sVheight
p581
I0
sVwidth
p582
I0
ssVswallows
p583
(lp584
sVfocused
p585
I00
sVscratchpad_state
p586
Vnone
p587
sVrect
p588
(dp589
g113
I25
sg114
I1363
sVheight
p590
I740
sVwidth
p591
I1360
ssVwindow_rect
p592
(dp593
g113
I0
sg114
I0
sVheight
p594
I740
sVwidth
p595
I1360
ssVname
p596
VDiscord
p597
sVgeometry
p598
(dp599
g113
I25
sg114
I1363
sVheight
p600
I740
sVwidth
p601
I1360
ssVfloating_nodes
p602
(lp603
sVoutput
p604
V__i3
p605
sasVtype
p606
Vfloating_con
p607
sVdeco_rect
p608
(dp609
g113
I0
sg114
I0
sVheight
p610
I0
sVwidth
p611
I0
ssVswallows
p612
(lp613
sVfocused
p614
I00
sVscratchpad_state
p615
Vchanged
p616
sVrect
p617
(dp618
g113
I25
sg114
I463760
sVheight
p619
I740
sVwidth
p620
I1360
ssVwindow_rect
p621
(dp622
g113
I0
sg114
I0
sVheight
p623
I0
sVwidth
p624
I0
ssVname
p625
NsVgeometry
p626
(dp627
g113
I0
sg114
I0
sVheight
p628
I0
sVwidth
p629
I0
ssVfloating_nodes
p630
(lp631
sVoutput
p632
V__i3
p633
sasVoutput
p634
V__i3
p635
sasVtype
p636
Vcon
p637
sVdeco_rect
p638
(dp639
g113
I0
sg114
I0
sVheight
p640
I0
sVwidth
p641
I0
ssVswallows
p642
(lp643
sVfocused
p644
I00
sVscratchpad_state
p645
Vnone
p646
sVrect
p647
(dp648
g113
I0
sg114
I0
sVheight
p649
I0
sVwidth
p650
I0
ssVwindow_rect
p651
(dp652
g113
I0
sg114
I0
sVheight
p653
I0
sVwidth
p654
I0
ssVname
p655
Vcontent
p656
sVgeometry
p657
(dp658
g113
I0
sg114
I0
sVheight
p659
I0
sVwidth
p660
I0
ssVfloating_nodes
p661
(lp662
sVoutput
p663
V__i3
p664
sasVtype
p665
Voutput
p666
sVdeco_rect
p667
(dp668
g113
I0
sg114
I0
sVheight
p669
I0
sVwidth
p670
I0
ssVswallows
p671
(lp672
sVfocused
p673
I00
sVscratchpad_state
p674
Vnone
p675
sVrect
p676
(dp677
g113
I0
sg114
I0
sVheight
p678
I768
sVwidth
p679
I928880
ssVwindow_rect
p680
(dp681
g113
I0
sg114
I0
sVheight
p682
I0
sVwidth
p683
I0
ssVname
p684
V__i3
p685
sVgeometry
p686
(dp687
g113
I0
sg114
I0
sVheight
p688
I0
sVwidth
p689
I0
ssVfloating_nodes
p690
(lp691
sa(dp692
Vfullscreen_mode
p693
I0
sVorientation
p694
Vnone
p695
sVfocus
p696
(lp697
I94205769715040
aI94205769711776
aI94205769718304
asVsticky
p698
I00
sVurgent
p699
I00
sVlast_split_layout
p700
Vsplith
p701
sVfloating
p702
Vauto_off
p703
sVborder
p704
Vpixel
p705
sVid
p706
I94205769708544
sVcurrent_border_width
p707
I-1
sVwindow_type
p708
NsVlayout
p709
Voutput
p710
sVpercent
p711
F0.3333333333333333
sVworkspace_layout
p712
Vdefault
p713
sVwindow
p714
NsVmarks
p715
(lp716
sVnodes
p717
(lp718
(dp719
Vfullscreen_mode
p720
I0
sVorientation
p721
Vnone
p722
sVfocus
p723
(lp724
I94205769654688
asVsticky
p725
I00
sVurgent
p726
I00
sVlast_split_layout
p727
Vsplith
p728
sVfloating
p729
Vauto_off
p730
sVborder
p731
Vpixel
p732
sVid
p733
I94205769711776
sVcurrent_border_width
p734
I-1
sVwindow_type
p735
NsVlayout
p736
Vdockarea
p737
sVpercent
p738
NsVworkspace_layout
p739
Vdefault
p740
sVwindow
p741
NsVmarks
p742
(lp743
sVnodes
p744
(lp745
(dp746
Vwindow_properties
p747
(dp748
Vinstance
p749
Vpolybar
p750
sVtransient_for
p751
NsVclass
p752
VPolybar
p753
sVtitle
p754
Vpolybar-main_eDP1
p755
ssVfullscreen_mode
p756
I0
sVorientation
p757
Vnone
p758
sVprocess
p759
S'polybar'
p760
sVfocus
p761
(lp762
sVsticky
p763
I01
sVurgent
p764
I00
sVlast_split_layout
p765
Vsplith
p766
sVfloating
p767
Vauto_off
p768
sVborder
p769
Vpixel
p770
sVid
p771
I94205769654688
sVcurrent_border_width
p772
I2
sVwindow_type
p773
Vunknown
p774
sVlayout
p775
Vsplith
p776
sVpercent
p777
F1.0
sVworkspace_layout
p778
Vdefault
p779
sVwindow
p780
I54525953
sVmarks
p781
(lp782
sVnodes
p783
(lp784
sVtype
p785
Vcon
p786
sVdeco_rect
p787
(dp788
g113
I0
sg114
I0
sVheight
p789
I0
sVwidth
p790
I0
ssVswallows
p791
(lp792
sVfocused
p793
I00
sVscratchpad_state
p794
Vnone
p795
sVrect
p796
(dp797
g113
I0
sg114
I1360
sVheight
p798
I23
sVwidth
p799
I1366
ssVwindow_rect
p800
(dp801
g113
I0
sg114
I0
sVheight
p802
I23
sVwidth
p803
I1366
ssVname
p804
Vpolybar-main_eDP1
p805
sVgeometry
p806
(dp807
g113
I0
sg114
I1360
sVheight
p808
I23
sVwidth
p809
I1366
ssVfloating_nodes
p810
(lp811
sVoutput
p812
VeDP1
p813
sasVtype
p814
Vdockarea
p815
sVdeco_rect
p816
(dp817
g113
I0
sg114
I0
sVheight
p818
I0
sVwidth
p819
I0
ssVswallows
p820
(lp821
(dp822
Vdock
p823
I2
sVinsert_where
p824
I2
sasVfocused
p825
I00
sVscratchpad_state
p826
Vnone
p827
sVrect
p828
(dp829
g113
I0
sg114
I1360
sVheight
p830
I23
sVwidth
p831
I1366
ssVwindow_rect
p832
(dp833
g113
I0
sg114
I0
sVheight
p834
I0
sVwidth
p835
I0
ssVname
p836
Vtopdock
p837
sVgeometry
p838
(dp839
g113
I0
sg114
I0
sVheight
p840
I0
sVwidth
p841
I0
ssVfloating_nodes
p842
(lp843
sVoutput
p844
VeDP1
p845
sa(dp846
Vfullscreen_mode
p847
I0
sVorientation
p848
Vhorizontal
p849
sVfocus
p850
(lp851
I94205769728624
aI94205769880480
asVsticky
p852
I00
sVurgent
p853
I00
sVlast_split_layout
p854
Vsplith
p855
sVfloating
p856
Vauto_off
p857
sVborder
p858
Vpixel
p859
sVid
p860
I94205769715040
sVcurrent_border_width
p861
I-1
sVwindow_type
p862
NsVlayout
p863
Vsplith
p864
sVpercent
p865
NsVworkspace_layout
p866
Vdefault
p867
sVwindow
p868
NsVmarks
p869
(lp870
sVnodes
p871
(lp872
(dp873
Vfullscreen_mode
p874
I1
sVorientation
p875
Vhorizontal
p876
sVfocus
p877
(lp878
I94205768951968
aI94205769787840
asVsticky
p879
I00
sVurgent
p880
I00
sVnum
p881
I1
sVlast_split_layout
p882
Vsplith
p883
sVfloating
p884
Vauto_off
p885
sVborder
p886
Vpixel
p887
sVid
p888
I94205769728624
sVcurrent_border_width
p889
I-1
sVwindow_type
p890
NsVlayout
p891
Vsplith
p892
sVpercent
p893
F1.0
sVworkspace_layout
p894
Vdefault
p895
sVwindow
p896
NsVmarks
p897
(lp898
sVnodes
p899
(lp900
(dp901
Vwindow_properties
p902
(dp903
Vinstance
p904
Vgoogle-chrome
p905
sVtransient_for
p906
NsVwindow_role
p907
Vbrowser
p908
sVclass
p909
VGoogle-chrome
p910
sVtitle
p911
VAndreaHasani/i3session: The missing session manager for i3-wm - Google Chrome
p912
ssVfullscreen_mode
p913
I0
sVorientation
p914
Vnone
p915
sg759
S'google-chrome'
p916
sVfocus
p917
(lp918
sVsticky
p919
I00
sVurgent
p920
I00
sVlast_split_layout
p921
Vsplith
p922
sVfloating
p923
Vauto_off
p924
sVborder
p925
Vnone
p926
sVid
p927
I94205769787840
sVcurrent_border_width
p928
I0
sVwindow_type
p929
Vnormal
p930
sVlayout
p931
Vsplith
p932
sVpercent
p933
F1.0
sVworkspace_layout
p934
Vdefault
p935
sVwindow
p936
I75497479
sVmarks
p937
(lp938
sVnodes
p939
(lp940
sVtype
p941
Vcon
p942
sVdeco_rect
p943
(dp944
g113
I0
sg114
I0
sVheight
p945
I0
sVwidth
p946
I0
ssVswallows
p947
(lp948
sVfocused
p949
I00
sVscratchpad_state
p950
Vnone
p951
sVrect
p952
(dp953
g113
I23
sg114
I1360
sVheight
p954
I745
sVwidth
p955
I1366
ssVwindow_rect
p956
(dp957
g113
I0
sg114
I0
sVheight
p958
I745
sVwidth
p959
I1366
ssVname
p960
VAndreaHasani/i3session: The missing session manager for i3-wm - Google Chrome
p961
sVgeometry
p962
(dp963
g113
I23
sg114
I1360
sVheight
p964
I745
sVwidth
p965
I1366
ssVfloating_nodes
p966
(lp967
sVoutput
p968
VeDP1
p969
sasVtype
p970
Vworkspace
p971
sVdeco_rect
p972
(dp973
g113
I0
sg114
I0
sVheight
p974
I0
sVwidth
p975
I0
ssVswallows
p976
(lp977
sVfocused
p978
I00
sVscratchpad_state
p979
Vnone
p980
sVrect
p981
(dp982
g113
I23
sg114
I1360
sVheight
p983
I745
sVwidth
p984
I1366
ssVwindow_rect
p985
(dp986
g113
I0
sg114
I0
sVheight
p987
I0
sVwidth
p988
I0
ssVname
p989
V1
p990
sVgeometry
p991
(dp992
g113
I0
sg114
I0
sVheight
p993
I0
sVwidth
p994
I0
ssVgaps
p995
(dp996
Vright
p997
I0
sVouter
p998
I0
sVbottom
p999
I0
sVtop
p1000
I0
sVinner
p1001
I0
sVleft
p1002
I0
ssVfloating_nodes
p1003
(lp1004
(dp1005
Vfullscreen_mode
p1006
I0
sVorientation
p1007
Vhorizontal
p1008
sVfocus
p1009
(lp1010
I94205769878544
asVsticky
p1011
I00
sVurgent
p1012
I00
sVlast_split_layout
p1013
Vsplith
p1014
sVfloating
p1015
Vauto_off
p1016
sVborder
p1017
Vpixel
p1018
sVid
p1019
I94205768951968
sVcurrent_border_width
p1020
I-1
sVwindow_type
p1021
NsVlayout
p1022
Vsplith
p1023
sVpercent
p1024
NsVworkspace_layout
p1025
Vdefault
p1026
sVwindow
p1027
NsVmarks
p1028
(lp1029
sVnodes
p1030
(lp1031
(dp1032
Vwindow_properties
p1033
(dp1034
Vinstance
p1035
Vfloating_urxvt
p1036
sVtransient_for
p1037
NsVclass
p1038
VURxvt
p1039
sVtitle
p1040
Vfloating_urxvt
p1041
ssVfullscreen_mode
p1042
I0
sVorientation
p1043
Vnone
p1044
sVfocus
p1045
(lp1046
sVsticky
p1047
I01
sVurgent
p1048
I00
sVlast_split_layout
p1049
Vsplith
p1050
sVfloating
p1051
Vuser_on
p1052
sVborder
p1053
Vpixel
p1054
sVid
p1055
I94205769878544
sVcurrent_border_width
p1056
I0
sVwindow_type
p1057
Vunknown
p1058
sVlayout
p1059
Vsplith
p1060
sVpercent
p1061
F1.0
sVworkspace_layout
p1062
Vdefault
p1063
sVwindow
p1064
I60817418
sVmarks
p1065
(lp1066
sVnodes
p1067
(lp1068
sVtype
p1069
Vcon
p1070
sVdeco_rect
p1071
(dp1072
g113
I0
sg114
I0
sVheight
p1073
I0
sVwidth
p1074
I0
ssVswallows
p1075
(lp1076
sVfocused
p1077
I01
sVscratchpad_state
p1078
Vnone
p1079
sVrect
p1080
(dp1081
g113
I29
sg114
I1760
sVheight
p1082
I357
sVwidth
p1083
I565
ssVwindow_rect
p1084
(dp1085
g113
I0
sg114
I0
sVheight
p1086
I349
sVwidth
p1087
I557
ssVname
p1088
Vfloating_urxvt
p1089
sVgeometry
p1090
(dp1091
g113
I0
sg114
I0
sVheight
p1092
I724
sVwidth
p1093
I1334
ssVfloating_nodes
p1094
(lp1095
sVoutput
p1096
VeDP1
p1097
sasVtype
p1098
Vfloating_con
p1099
sVdeco_rect
p1100
(dp1101
g113
I0
sg114
I0
sVheight
p1102
I0
sVwidth
p1103
I0
ssVswallows
p1104
(lp1105
sVfocused
p1106
I00
sVscratchpad_state
p1107
Vchanged
p1108
sVrect
p1109
(dp1110
g113
I29
sg114
I1760
sVheight
p1111
I357
sVwidth
p1112
I565
ssVwindow_rect
p1113
(dp1114
g113
I0
sg114
I0
sVheight
p1115
I0
sVwidth
p1116
I0
ssVname
p1117
NsVgeometry
p1118
(dp1119
g113
I0
sg114
I0
sVheight
p1120
I0
sVwidth
p1121
I0
ssVfloating_nodes
p1122
(lp1123
sVoutput
p1124
VeDP1
p1125
sasVoutput
p1126
VeDP1
p1127
sa(dp1128
Vfullscreen_mode
p1129
I0
sVorientation
p1130
Vhorizontal
p1131
sVfocus
p1132
(lp1133
I94205770016896
aI94205769967360
asVsticky
p1134
I00
sVurgent
p1135
I00
sVnum
p1136
I3
sVlast_split_layout
p1137
Vsplith
p1138
sVfloating
p1139
Vauto_off
p1140
sVborder
p1141
Vpixel
p1142
sVid
p1143
I94205769880480
sVcurrent_border_width
p1144
I-1
sVwindow_type
p1145
NsVlayout
p1146
Vsplith
p1147
sVpercent
p1148
NsVworkspace_layout
p1149
Vdefault
p1150
sVwindow
p1151
NsVmarks
p1152
(lp1153
sVnodes
p1154
(lp1155
(dp1156
Vfullscreen_mode
p1157
I0
sVorientation
p1158
Vvertical
p1159
sVfocus
p1160
(lp1161
I94205770000560
asVsticky
p1162
I00
sVurgent
p1163
I00
sVlast_split_layout
p1164
Vsplitv
p1165
sVfloating
p1166
Vauto_off
p1167
sVborder
p1168
Vpixel
p1169
sVid
p1170
I94205770016896
sVcurrent_border_width
p1171
I-1
sVwindow_type
p1172
NsVlayout
p1173
Vsplitv
p1174
sVpercent
p1175
F0.5
sVworkspace_layout
p1176
Vdefault
p1177
sVwindow
p1178
NsVmarks
p1179
(lp1180
sVnodes
p1181
(lp1182
(dp1183
Vwindow_properties
p1184
(dp1185
Vinstance
p1186
Vtelegram-desktop
p1187
sVtransient_for
p1188
NsVclass
p1189
VTelegramDesktop
p1190
sVtitle
p1191
VTelegram (75)
p1192
ssVfullscreen_mode
p1193
I0
sVorientation
p1194
Vnone
p1195
sg759
S'telegramdesktop'
p1196
sVfocus
p1197
(lp1198
sVsticky
p1199
I00
sVurgent
p1200
I00
sVlast_split_layout
p1201
Vsplith
p1202
sVfloating
p1203
Vauto_off
p1204
sVborder
p1205
Vpixel
p1206
sVid
p1207
I94205770000560
sVcurrent_border_width
p1208
I0
sVwindow_type
p1209
Vnormal
p1210
sVlayout
p1211
Vsplith
p1212
sVpercent
p1213
NsVworkspace_layout
p1214
Vdefault
p1215
sVwindow
p1216
I90177542
sVmarks
p1217
(lp1218
sVnodes
p1219
(lp1220
sVtype
p1221
Vcon
p1222
sVdeco_rect
p1223
(dp1224
g113
I0
sg114
I0
sVheight
p1225
I0
sVwidth
p1226
I0
ssVswallows
p1227
(lp1228
sVfocused
p1229
I00
sVscratchpad_state
p1230
Vnone
p1231
sVrect
p1232
(dp1233
g113
I31
sg114
I1368
sVheight
p1234
I729
sVwidth
p1235
I670
ssVwindow_rect
p1236
(dp1237
g113
I0
sg114
I0
sVheight
p1238
I729
sVwidth
p1239
I670
ssVname
p1240
VTelegram (75)
p1241
sVgeometry
p1242
(dp1243
g113
I31
sg114
I2048
sVheight
p1244
I729
sVwidth
p1245
I670
ssVfloating_nodes
p1246
(lp1247
sVoutput
p1248
VeDP1
p1249
sasVtype
p1250
Vcon
p1251
sVdeco_rect
p1252
(dp1253
g113
I0
sg114
I0
sVheight
p1254
I0
sVwidth
p1255
I0
ssVswallows
p1256
(lp1257
sVfocused
p1258
I00
sVscratchpad_state
p1259
Vnone
p1260
sVrect
p1261
(dp1262
g113
I23
sg114
I1360
sVheight
p1263
I745
sVwidth
p1264
I683
ssVwindow_rect
p1265
(dp1266
g113
I0
sg114
I0
sVheight
p1267
I0
sVwidth
p1268
I0
ssVname
p1269
NsVgeometry
p1270
(dp1271
g113
I0
sg114
I0
sVheight
p1272
I0
sVwidth
p1273
I0
ssVfloating_nodes
p1274
(lp1275
sVoutput
p1276
VeDP1
p1277
sa(dp1278
Vfullscreen_mode
p1279
I0
sVorientation
p1280
Vvertical
p1281
sVfocus
p1282
(lp1283
I94205769938000
aI94205769803072
asVsticky
p1284
I00
sVurgent
p1285
I00
sVlast_split_layout
p1286
Vsplitv
p1287
sVfloating
p1288
Vauto_off
p1289
sVborder
p1290
Vpixel
p1291
sVid
p1292
I94205769967360
sVcurrent_border_width
p1293
I-1
sVwindow_type
p1294
NsVlayout
p1295
Vsplitv
p1296
sVpercent
p1297
F0.5
sVworkspace_layout
p1298
Vdefault
p1299
sVwindow
p1300
NsVmarks
p1301
(lp1302
sVnodes
p1303
(lp1304
(dp1305
Vwindow_properties
p1306
(dp1307
Vinstance
p1308
Vchromium
p1309
sVtransient_for
p1310
NsVwindow_role
p1311
Vbrowser
p1312
sVclass
p1313
VChromium
p1314
sVtitle
p1315
V#regras - Chromium
p1316
ssVfullscreen_mode
p1317
I0
sVorientation
p1318
Vnone
p1319
sg759
S'chromium'
p1320
sVfocus
p1321
(lp1322
sVsticky
p1323
I00
sVurgent
p1324
I00
sVlast_split_layout
p1325
Vsplith
p1326
sVfloating
p1327
Vauto_off
p1328
sVborder
p1329
Vnone
p1330
sVid
p1331
I94205769803072
sVcurrent_border_width
p1332
I0
sVwindow_type
p1333
Vnormal
p1334
sVlayout
p1335
Vsplith
p1336
sVpercent
p1337
F0.5
sVworkspace_layout
p1338
Vdefault
p1339
sVwindow
p1340
I113246215
sVmarks
p1341
(lp1342
sVnodes
p1343
(lp1344
sVtype
p1345
Vcon
p1346
sVdeco_rect
p1347
(dp1348
g113
I0
sg114
I0
sVheight
p1349
I0
sVwidth
p1350
I0
ssVswallows
p1351
(lp1352
sVfocused
p1353
I00
sVscratchpad_state
p1354
Vnone
p1355
sVrect
p1356
(dp1357
g113
I31
sg114
I2048
sVheight
p1358
I359
sVwidth
p1359
I670
ssVwindow_rect
p1360
(dp1361
g113
I0
sg114
I0
sVheight
p1362
I359
sVwidth
p1363
I670
ssVname
p1364
V#regras - Chromium
p1365
sVgeometry
p1366
(dp1367
g113
I23
sg114
I1360
sVheight
p1368
I745
sVwidth
p1369
I1366
ssVfloating_nodes
p1370
(lp1371
sVoutput
p1372
VeDP1
p1373
sa(dp1374
Vfullscreen_mode
p1375
I0
sVorientation
p1376
Vhorizontal
p1377
sVfocus
p1378
(lp1379
I94205769889648
asVsticky
p1380
I00
sVurgent
p1381
I00
sVlast_split_layout
p1382
Vsplith
p1383
sVfloating
p1384
Vauto_off
p1385
sVborder
p1386
Vpixel
p1387
sVid
p1388
I94205769938000
sVcurrent_border_width
p1389
I-1
sVwindow_type
p1390
NsVlayout
p1391
Vsplith
p1392
sVpercent
p1393
F0.5
sVworkspace_layout
p1394
Vdefault
p1395
sVwindow
p1396
NsVmarks
p1397
(lp1398
sVnodes
p1399
(lp1400
(dp1401
Vwindow_properties
p1402
(dp1403
Vinstance
p1404
Vurxvt
p1405
sVtransient_for
p1406
NsVclass
p1407
VURxvt
p1408
sVtitle
p1409
Vurxvt
p1410
ssVfullscreen_mode
p1411
I0
sVorientation
p1412
Vnone
p1413
sg759
S'urxvt'
p1414
sVfocus
p1415
(lp1416
sVsticky
p1417
I00
sVurgent
p1418
I00
sVlast_split_layout
p1419
Vsplith
p1420
sVfloating
p1421
Vauto_off
p1422
sVborder
p1423
Vpixel
p1424
sVid
p1425
I94205769889648
sVcurrent_border_width
p1426
I0
sVwindow_type
p1427
Vunknown
p1428
sVlayout
p1429
Vsplith
p1430
sVpercent
p1431
NsVworkspace_layout
p1432
Vdefault
p1433
sVwindow
p1434
I14686279
sVmarks
p1435
(lp1436
sVnodes
p1437
(lp1438
sVtype
p1439
Vcon
p1440
sVdeco_rect
p1441
(dp1442
g113
I0
sg114
I0
sVheight
p1443
I0
sVwidth
p1444
I0
ssVswallows
p1445
(lp1446
sVfocused
p1447
I00
sVscratchpad_state
p1448
Vnone
p1449
sVrect
p1450
(dp1451
g113
I400
sg114
I2048
sVheight
p1452
I360
sVwidth
p1453
I670
ssVwindow_rect
p1454
(dp1455
g113
I0
sg114
I0
sVheight
p1456
I352
sVwidth
p1457
I662
ssVname
p1458
Vurxvt
p1459
sVgeometry
p1460
(dp1461
g113
I0
sg114
I0
sVheight
p1462
I724
sVwidth
p1463
I1334
ssVfloating_nodes
p1464
(lp1465
sVoutput
p1466
VeDP1
p1467
sasVtype
p1468
Vcon
p1469
sVdeco_rect
p1470
(dp1471
g113
I0
sg114
I0
sVheight
p1472
I0
sVwidth
p1473
I0
ssVswallows
p1474
(lp1475
sVfocused
p1476
I00
sVscratchpad_state
p1477
Vnone
p1478
sVrect
p1479
(dp1480
g113
I395
sg114
I2043
sVheight
p1481
I373
sVwidth
p1482
I683
ssVwindow_rect
p1483
(dp1484
g113
I0
sg114
I0
sVheight
p1485
I0
sVwidth
p1486
I0
ssVname
p1487
NsVgeometry
p1488
(dp1489
g113
I0
sg114
I0
sVheight
p1490
I0
sVwidth
p1491
I0
ssVfloating_nodes
p1492
(lp1493
sVoutput
p1494
VeDP1
p1495
sasVtype
p1496
Vcon
p1497
sVdeco_rect
p1498
(dp1499
g113
I0
sg114
I0
sVheight
p1500
I0
sVwidth
p1501
I0
ssVswallows
p1502
(lp1503
sVfocused
p1504
I00
sVscratchpad_state
p1505
Vnone
p1506
sVrect
p1507
(dp1508
g113
I23
sg114
I2043
sVheight
p1509
I745
sVwidth
p1510
I683
ssVwindow_rect
p1511
(dp1512
g113
I0
sg114
I0
sVheight
p1513
I0
sVwidth
p1514
I0
ssVname
p1515
NsVgeometry
p1516
(dp1517
g113
I0
sg114
I0
sVheight
p1518
I0
sVwidth
p1519
I0
ssVfloating_nodes
p1520
(lp1521
sVoutput
p1522
VeDP1
p1523
sasVtype
p1524
Vworkspace
p1525
sVdeco_rect
p1526
(dp1527
g113
I0
sg114
I0
sVheight
p1528
I0
sVwidth
p1529
I0
ssVswallows
p1530
(lp1531
sVfocused
p1532
I00
sVscratchpad_state
p1533
Vnone
p1534
sVrect
p1535
(dp1536
g113
I23
sg114
I1360
sVheight
p1537
I745
sVwidth
p1538
I1366
ssVwindow_rect
p1539
(dp1540
g113
I0
sg114
I0
sVheight
p1541
I0
sVwidth
p1542
I0
ssVname
p1543
V3
p1544
sVgeometry
p1545
(dp1546
g113
I0
sg114
I0
sVheight
p1547
I0
sVwidth
p1548
I0
ssVgaps
p1549
(dp1550
Vright
p1551
I0
sVouter
p1552
I0
sVbottom
p1553
I0
sVtop
p1554
I0
sVinner
p1555
I0
sVleft
p1556
I0
ssVfloating_nodes
p1557
(lp1558
sVoutput
p1559
VeDP1
p1560
sasVtype
p1561
Vcon
p1562
sVdeco_rect
p1563
(dp1564
g113
I0
sg114
I0
sVheight
p1565
I0
sVwidth
p1566
I0
ssVswallows
p1567
(lp1568
sVfocused
p1569
I00
sVscratchpad_state
p1570
Vnone
p1571
sVrect
p1572
(dp1573
g113
I23
sg114
I1360
sVheight
p1574
I745
sVwidth
p1575
I1366
ssVwindow_rect
p1576
(dp1577
g113
I0
sg114
I0
sVheight
p1578
I0
sVwidth
p1579
I0
ssVname
p1580
Vcontent
p1581
sVgeometry
p1582
(dp1583
g113
I0
sg114
I0
sVheight
p1584
I0
sVwidth
p1585
I0
ssVfloating_nodes
p1586
(lp1587
sVoutput
p1588
VeDP1
p1589
sa(dp1590
Vfullscreen_mode
p1591
I0
sVorientation
p1592
Vnone
p1593
sVfocus
p1594
(lp1595
sVsticky
p1596
I00
sVurgent
p1597
I00
sVlast_split_layout
p1598
Vsplith
p1599
sVfloating
p1600
Vauto_off
p1601
sVborder
p1602
Vpixel
p1603
sVid
p1604
I94205769718304
sVcurrent_border_width
p1605
I-1
sVwindow_type
p1606
NsVlayout
p1607
Vdockarea
p1608
sVpercent
p1609
NsVworkspace_layout
p1610
Vdefault
p1611
sVwindow
p1612
NsVmarks
p1613
(lp1614
sVnodes
p1615
(lp1616
sVtype
p1617
Vdockarea
p1618
sVdeco_rect
p1619
(dp1620
g113
I0
sg114
I0
sVheight
p1621
I0
sVwidth
p1622
I0
ssVswallows
p1623
(lp1624
(dp1625
Vdock
p1626
I3
sVinsert_where
p1627
I2
sasVfocused
p1628
I00
sVscratchpad_state
p1629
Vnone
p1630
sVrect
p1631
(dp1632
g113
I768
sg114
I1360
sVheight
p1633
I0
sVwidth
p1634
I1366
ssVwindow_rect
p1635
(dp1636
g113
I0
sg114
I0
sVheight
p1637
I0
sVwidth
p1638
I0
ssVname
p1639
Vbottomdock
p1640
sVgeometry
p1641
(dp1642
g113
I0
sg114
I0
sVheight
p1643
I0
sVwidth
p1644
I0
ssVfloating_nodes
p1645
(lp1646
sVoutput
p1647
VeDP1
p1648
sasVtype
p1649
Voutput
p1650
sVdeco_rect
p1651
(dp1652
g113
I0
sg114
I0
sVheight
p1653
I0
sVwidth
p1654
I0
ssVswallows
p1655
(lp1656
sVfocused
p1657
I00
sVscratchpad_state
p1658
Vnone
p1659
sVrect
p1660
(dp1661
g113
I0
sg114
I1360
sVheight
p1662
I768
sVwidth
p1663
I1366
ssVwindow_rect
p1664
(dp1665
g113
I0
sg114
I0
sVheight
p1666
I0
sVwidth
p1667
I0
ssVname
p1668
VeDP1
p1669
sVgeometry
p1670
(dp1671
g113
I0
sg114
I0
sVheight
p1672
I0
sVwidth
p1673
I0
ssVfloating_nodes
p1674
(lp1675
sa(dp1676
Vfullscreen_mode
p1677
I0
sVorientation
p1678
Vnone
p1679
sVfocus
p1680
(lp1681
I94205768937296
aI94205768887328
aI94205769771168
asVsticky
p1682
I00
sVurgent
p1683
I00
sVlast_split_layout
p1684
Vsplith
p1685
sVfloating
p1686
Vauto_off
p1687
sVborder
p1688
Vpixel
p1689
sVid
p1690
I94205769747280
sVcurrent_border_width
p1691
I-1
sVwindow_type
p1692
NsVlayout
p1693
Voutput
p1694
sVpercent
p1695
F0.3333333333333333
sVworkspace_layout
p1696
Vdefault
p1697
sVwindow
p1698
NsVmarks
p1699
(lp1700
sVnodes
p1701
(lp1702
(dp1703
Vfullscreen_mode
p1704
I0
sVorientation
p1705
Vnone
p1706
sVfocus
p1707
(lp1708
I94205769878064
asVsticky
p1709
I00
sVurgent
p1710
I00
sVlast_split_layout
p1711
Vsplith
p1712
sVfloating
p1713
Vauto_off
p1714
sVborder
p1715
Vpixel
p1716
sVid
p1717
I94205768887328
sVcurrent_border_width
p1718
I-1
sVwindow_type
p1719
NsVlayout
p1720
Vdockarea
p1721
sVpercent
p1722
NsVworkspace_layout
p1723
Vdefault
p1724
sVwindow
p1725
NsVmarks
p1726
(lp1727
sVnodes
p1728
(lp1729
(dp1730
Vwindow_properties
p1731
(dp1732
Vinstance
p1733
Vpolybar
p1734
sVtransient_for
p1735
NsVclass
p1736
VPolybar
p1737
sVtitle
p1738
Vpolybar-main_DP1
p1739
ssVfullscreen_mode
p1740
I0
sVorientation
p1741
Vnone
p1742
sg759
S'polybar'
p1743
sVfocus
p1744
(lp1745
sVsticky
p1746
I01
sVurgent
p1747
I00
sVlast_split_layout
p1748
Vsplith
p1749
sVfloating
p1750
Vauto_off
p1751
sVborder
p1752
Vpixel
p1753
sVid
p1754
I94205769878064
sVcurrent_border_width
p1755
I2
sVwindow_type
p1756
Vunknown
p1757
sVlayout
p1758
Vsplith
p1759
sVpercent
p1760
F1.0
sVworkspace_layout
p1761
Vdefault
p1762
sVwindow
p1763
I56623105
sVmarks
p1764
(lp1765
sVnodes
p1766
(lp1767
sVtype
p1768
Vcon
p1769
sVdeco_rect
p1770
(dp1771
g113
I0
sg114
I0
sVheight
p1772
I0
sVwidth
p1773
I0
ssVswallows
p1774
(lp1775
sVfocused
p1776
I00
sVscratchpad_state
p1777
Vnone
p1778
sVrect
p1779
(dp1780
g113
I0
sg114
I0
sVheight
p1781
I23
sVwidth
p1782
I1360
ssVwindow_rect
p1783
(dp1784
g113
I0
sg114
I0
sVheight
p1785
I23
sVwidth
p1786
I1360
ssVname
p1787
Vpolybar-main_DP1
p1788
sVgeometry
p1789
(dp1790
g113
I0
sg114
I0
sVheight
p1791
I23
sVwidth
p1792
I1360
ssVfloating_nodes
p1793
(lp1794
sVoutput
p1795
VDP1
p1796
sasVtype
p1797
Vdockarea
p1798
sVdeco_rect
p1799
(dp1800
g113
I0
sg114
I0
sVheight
p1801
I0
sVwidth
p1802
I0
ssVswallows
p1803
(lp1804
(dp1805
Vdock
p1806
I2
sVinsert_where
p1807
I2
sasVfocused
p1808
I00
sVscratchpad_state
p1809
Vnone
p1810
sVrect
p1811
(dp1812
g113
I0
sg114
I0
sVheight
p1813
I23
sVwidth
p1814
I1360
ssVwindow_rect
p1815
(dp1816
g113
I0
sg114
I0
sVheight
p1817
I0
sVwidth
p1818
I0
ssVname
p1819
Vtopdock
p1820
sVgeometry
p1821
(dp1822
g113
I0
sg114
I0
sVheight
p1823
I0
sVwidth
p1824
I0
ssVfloating_nodes
p1825
(lp1826
sVoutput
p1827
VDP1
p1828
sa(dp1829
Vfullscreen_mode
p1830
I0
sVorientation
p1831
Vhorizontal
p1832
sVfocus
p1833
(lp1834
I94205769659888
asVsticky
p1835
I00
sVurgent
p1836
I00
sVlast_split_layout
p1837
Vsplith
p1838
sVfloating
p1839
Vauto_off
p1840
sVborder
p1841
Vpixel
p1842
sVid
p1843
I94205768937296
sVcurrent_border_width
p1844
I-1
sVwindow_type
p1845
NsVlayout
p1846
Vsplith
p1847
sVpercent
p1848
NsVworkspace_layout
p1849
Vdefault
p1850
sVwindow
p1851
NsVmarks
p1852
(lp1853
sVnodes
p1854
(lp1855
(dp1856
Vfullscreen_mode
p1857
I1
sVorientation
p1858
Vnone
p1859
sVfocus
p1860
(lp1861
sVsticky
p1862
I00
sVurgent
p1863
I00
sVnum
p1864
I2
sVlast_split_layout
p1865
Vsplith
p1866
sVfloating
p1867
Vauto_off
p1868
sVborder
p1869
Vpixel
p1870
sVid
p1871
I94205769659888
sVcurrent_border_width
p1872
I-1
sVwindow_type
p1873
NsVlayout
p1874
Vsplith
p1875
sVpercent
p1876
NsVworkspace_layout
p1877
Vdefault
p1878
sVwindow
p1879
NsVmarks
p1880
(lp1881
sVnodes
p1882
(lp1883
sVtype
p1884
Vworkspace
p1885
sVdeco_rect
p1886
(dp1887
g113
I0
sg114
I0
sVheight
p1888
I0
sVwidth
p1889
I0
ssVswallows
p1890
(lp1891
sVfocused
p1892
I00
sVscratchpad_state
p1893
Vnone
p1894
sVrect
p1895
(dp1896
g113
I23
sg114
I0
sVheight
p1897
I745
sVwidth
p1898
I1360
ssVwindow_rect
p1899
(dp1900
g113
I0
sg114
I0
sVheight
p1901
I0
sVwidth
p1902
I0
ssVname
p1903
V2
p1904
sVgeometry
p1905
(dp1906
g113
I0
sg114
I0
sVheight
p1907
I0
sVwidth
p1908
I0
ssVgaps
p1909
(dp1910
Vright
p1911
I0
sVouter
p1912
I0
sVbottom
p1913
I0
sVtop
p1914
I0
sVinner
p1915
I0
sVleft
p1916
I0
ssVfloating_nodes
p1917
(lp1918
sVoutput
p1919
VDP1
p1920
sasVtype
p1921
Vcon
p1922
sVdeco_rect
p1923
(dp1924
g113
I0
sg114
I0
sVheight
p1925
I0
sVwidth
p1926
I0
ssVswallows
p1927
(lp1928
sVfocused
p1929
I00
sVscratchpad_state
p1930
Vnone
p1931
sVrect
p1932
(dp1933
g113
I23
sg114
I0
sVheight
p1934
I745
sVwidth
p1935
I1360
ssVwindow_rect
p1936
(dp1937
g113
I0
sg114
I0
sVheight
p1938
I0
sVwidth
p1939
I0
ssVname
p1940
Vcontent
p1941
sVgeometry
p1942
(dp1943
g113
I0
sg114
I0
sVheight
p1944
I0
sVwidth
p1945
I0
ssVfloating_nodes
p1946
(lp1947
sVoutput
p1948
VDP1
p1949
sa(dp1950
Vfullscreen_mode
p1951
I0
sVorientation
p1952
Vnone
p1953
sVfocus
p1954
(lp1955
sVsticky
p1956
I00
sVurgent
p1957
I00
sVlast_split_layout
p1958
Vsplith
p1959
sVfloating
p1960
Vauto_off
p1961
sVborder
p1962
Vpixel
p1963
sVid
p1964
I94205769771168
sVcurrent_border_width
p1965
I-1
sVwindow_type
p1966
NsVlayout
p1967
Vdockarea
p1968
sVpercent
p1969
NsVworkspace_layout
p1970
Vdefault
p1971
sVwindow
p1972
NsVmarks
p1973
(lp1974
sVnodes
p1975
(lp1976
sVtype
p1977
Vdockarea
p1978
sVdeco_rect
p1979
(dp1980
g113
I0
sg114
I0
sVheight
p1981
I0
sVwidth
p1982
I0
ssVswallows
p1983
(lp1984
(dp1985
Vdock
p1986
I3
sVinsert_where
p1987
I2
sasVfocused
p1988
I00
sVscratchpad_state
p1989
Vnone
p1990
sVrect
p1991
(dp1992
g113
I768
sg114
I0
sVheight
p1993
I0
sVwidth
p1994
I1360
ssVwindow_rect
p1995
(dp1996
g113
I0
sg114
I0
sVheight
p1997
I0
sVwidth
p1998
I0
ssVname
p1999
Vbottomdock
p2000
sVgeometry
p2001
(dp2002
g113
I0
sg114
I0
sVheight
p2003
I0
sVwidth
p2004
I0
ssVfloating_nodes
p2005
(lp2006
sVoutput
p2007
VDP1
p2008
sasVtype
p2009
Voutput
p2010
sVdeco_rect
p2011
(dp2012
g113
I0
sg114
I0
sVheight
p2013
I0
sVwidth
p2014
I0
ssVswallows
p2015
(lp2016
sVfocused
p2017
I00
sVscratchpad_state
p2018
Vnone
p2019
sVrect
p2020
(dp2021
g113
I0
sg114
I0
sVheight
p2022
I768
sVwidth
p2023
I1360
ssVwindow_rect
p2024
(dp2025
g113
I0
sg114
I0
sVheight
p2026
I0
sVwidth
p2027
I0
ssVname
p2028
VDP1
p2029
sVgeometry
p2030
(dp2031
g113
I0
sg114
I0
sVheight
p2032
I0
sVwidth
p2033
I0
ssVfloating_nodes
p2034
(lp2035
sasVtype
p2036
Vroot
p2037
sVdeco_rect
p2038
(dp2039
g113
I0
sg114
I0
sVheight
p2040
I0
sVwidth
p2041
I0
ssVswallows
p2042
(lp2043
sVfocused
p2044
I00
sVscratchpad_state
p2045
Vnone
p2046
sVrect
p2047
(dp2048
g113
I0
sg114
I0
sVheight
p2049
I768
sVwidth
p2050
I2726
ssVwindow_rect
p2051
(dp2052
g113
I0
sg114
I0
sVheight
p2053
I0
sVwidth
p2054
I0
ssVname
p2055
Vroot
p2056
sVgeometry
p2057
(dp2058
g113
I0
sg114
I0
sVheight
p2059
I0
sVwidth
p2060
I0
ssVfloating_nodes
p2061
(lp2062
s.